target datalayout = "e-m:e-p270:32:32-p271:32:32-p272:64:64-i64:64-i128:128-f80:128-n8:16:32:64-S128"
target triple = "x86_64-unknown-linux-gnu"

@__const._ZN8QuantLib12_GLOBAL__N_12SiEd.n = private unnamed_addr constant [7 x double] [double 0xBFA743D346EF9169, double 0x3F52EAA0858F5C66, double 0xBEED92E003182CD3, double 0x3E79522D26307C0C, double 0xBDF845984D0E374D, double 0x3D68EB42E75AA806, double 0xBCC5CF42710CA3FA], align 16

; Function Attrs: mustprogress nounwind uwtable
define internal noundef double @_ZN8QuantLib12_GLOBAL__N_14padeEdPKdS2_m(double noundef %x, ptr noundef %nominator, ptr noundef %denominator, i64 noundef %m) #2 {
entry:
  %x.addr = alloca double, align 8
  %nominator.addr = alloca ptr, align 8
  %denominator.addr = alloca ptr, align 8
  %m.addr = alloca i64, align 8
  %n = alloca double, align 8
  %d = alloca double, align 8
  %i = alloca i32, align 4
  store double %x, ptr %x.addr, align 8, !tbaa !14
  store ptr %nominator, ptr %nominator.addr, align 8, !tbaa !3
  store ptr %denominator, ptr %denominator.addr, align 8, !tbaa !3
  store i64 %m, ptr %m.addr, align 8, !tbaa !57
  call void @llvm.lifetime.start.p0(i64 8, ptr %n) #14
  store double 0.000000e+00, ptr %n, align 8, !tbaa !14
  call void @llvm.lifetime.start.p0(i64 8, ptr %d) #14
  store double 0.000000e+00, ptr %d, align 8, !tbaa !14
  call void @llvm.lifetime.start.p0(i64 4, ptr %i) #14
  %0 = load i64, ptr %m.addr, align 8, !tbaa !57
  %sub = sub i64 %0, 1
  %conv = trunc i64 %sub to i32
  store i32 %conv, ptr %i, align 4, !tbaa !55
  br label %for.cond

for.cond:                                         ; preds = %for.inc, %entry
  %1 = load i32, ptr %i, align 4, !tbaa !55
  %cmp = icmp sge i32 %1, 0
  br i1 %cmp, label %for.body, label %for.cond.cleanup

for.cond.cleanup:                                 ; preds = %for.cond
  call void @llvm.lifetime.end.p0(i64 4, ptr %i) #14
  br label %for.end

for.body:                                         ; preds = %for.cond
  %2 = load double, ptr %n, align 8, !tbaa !14
  %3 = load ptr, ptr %nominator.addr, align 8, !tbaa !3
  %4 = load i32, ptr %i, align 4, !tbaa !55
  %idxprom = sext i32 %4 to i64
  %arrayidx = getelementptr inbounds double, ptr %3, i64 %idxprom
  %5 = load double, ptr %arrayidx, align 8, !tbaa !14
  %add = fadd double %2, %5
  %6 = load double, ptr %x.addr, align 8, !tbaa !14
  %mul = fmul double %add, %6
  store double %mul, ptr %n, align 8, !tbaa !14
  %7 = load double, ptr %d, align 8, !tbaa !14
  %8 = load ptr, ptr %denominator.addr, align 8, !tbaa !3
  %9 = load i32, ptr %i, align 4, !tbaa !55
  %idxprom1 = sext i32 %9 to i64
  %arrayidx2 = getelementptr inbounds double, ptr %8, i64 %idxprom1
  %10 = load double, ptr %arrayidx2, align 8, !tbaa !14
  %add3 = fadd double %7, %10
  %11 = load double, ptr %x.addr, align 8, !tbaa !14
  %mul4 = fmul double %add3, %11
  store double %mul4, ptr %d, align 8, !tbaa !14
  br label %for.inc

for.inc:                                          ; preds = %for.body
  %12 = load i32, ptr %i, align 4, !tbaa !55
  %dec = add nsw i32 %12, -1
  store i32 %dec, ptr %i, align 4, !tbaa !55
  br label %for.cond, !llvm.loop !173

for.end:                                          ; preds = %for.cond.cleanup
  %13 = load double, ptr %n, align 8, !tbaa !14
  %add5 = fadd double 1.000000e+00, %13
  %14 = load double, ptr %d, align 8, !tbaa !14
  %add6 = fadd double 1.000000e+00, %14
  %div = fdiv double %add5, %add6
  call void @llvm.lifetime.end.p0(i64 8, ptr %d) #14
  call void @llvm.lifetime.end.p0(i64 8, ptr %n) #14
  ret double %div
}

; Function Attrs: mustprogress uwtable
define internal noundef double @_ZN8QuantLib12_GLOBAL__N_12SiEd(double noundef %x) #3 {
entry:
  %retval = alloca double, align 8
  %x.addr = alloca double, align 8
  %n = alloca [7 x double], align 16
  %d = alloca [7 x double], align 16
  %y = alloca double, align 8
  %fn = alloca [10 x double], align 16
  %fd = alloca [10 x double], align 16
  %f = alloca double, align 8
  %gn = alloca [10 x double], align 16
  %gd = alloca [10 x double], align 16
  %g = alloca double, align 8
  store double %x, ptr %x.addr, align 8, !tbaa !14
  %0 = load double, ptr %x.addr, align 8, !tbaa !14
  %cmp = fcmp ole double %0, 4.000000e+00
  br i1 %cmp, label %if.then, label %if.else

if.then:                                          ; preds = %entry
  call void @llvm.lifetime.start.p0(i64 56, ptr %n) #14
  call void @llvm.memcpy.p0.p0.i64(ptr align 16 %n, ptr align 16 @__const._ZN8QuantLib12_GLOBAL__N_12SiEd.n, i64 56, i1 false)
  call void @llvm.lifetime.start.p0(i64 56, ptr %d) #14
  call void @llvm.memset.p0.i64(ptr align 16 %d, i8 0, i64 56, i1 false)
  %1 = getelementptr inbounds [7 x double], ptr %d, i32 0, i32 0
  store double 0x3F84B7CF5608D6CE, ptr %1, align 16
  %2 = getelementptr inbounds [7 x double], ptr %d, i32 0, i32 1
  store double 0x3F0A2BD0A39EBC96, ptr %2, align 8
  %3 = getelementptr inbounds [7 x double], ptr %d, i32 0, i32 2
  store double 0x3E84E443BD2B518E, ptr %3, align 16
  %4 = getelementptr inbounds [7 x double], ptr %d, i32 0, i32 3
  store double 0x3DF68B6CFDA26513, ptr %4, align 8
  %5 = getelementptr inbounds [7 x double], ptr %d, i32 0, i32 4
  store double 0x3D5FB352EF2F0F1F, ptr %5, align 16
  %6 = getelementptr inbounds [7 x double], ptr %d, i32 0, i32 5
  store double 0x3CB723612D0C63A0, ptr %6, align 8
  %7 = load double, ptr %x.addr, align 8, !tbaa !14
  %8 = load double, ptr %x.addr, align 8, !tbaa !14
  %9 = load double, ptr %x.addr, align 8, !tbaa !14
  %mul = fmul double %8, %9
  %arraydecay = getelementptr inbounds [7 x double], ptr %n, i64 0, i64 0
  %arraydecay1 = getelementptr inbounds [7 x double], ptr %d, i64 0, i64 0
  %call = call noundef double @_ZN8QuantLib12_GLOBAL__N_14padeEdPKdS2_m(double noundef %mul, ptr noundef %arraydecay, ptr noundef %arraydecay1, i64 noundef 7)
  %mul2 = fmul double %7, %call
  store double %mul2, ptr %retval, align 8
  call void @llvm.lifetime.end.p0(i64 56, ptr %d) #14
  call void @llvm.lifetime.end.p0(i64 56, ptr %n) #14
  br label %return

if.else:                                          ; preds = %entry
  call void @llvm.lifetime.start.p0(i64 8, ptr %y) #14
  %10 = load double, ptr %x.addr, align 8, !tbaa !14
  %11 = load double, ptr %x.addr, align 8, !tbaa !14
  %mul3 = fmul double %10, %11
  %div = fdiv double 1.000000e+00, %mul3
  store double %div, ptr %y, align 8, !tbaa !14
  call void @llvm.lifetime.start.p0(i64 80, ptr %fn) #14
  call void @llvm.memcpy.p0.p0.i64(ptr align 16 %fn, ptr align 16 @__const._ZN8QuantLib12_GLOBAL__N_12SiEd.fn, i64 80, i1 false)
  call void @llvm.lifetime.start.p0(i64 80, ptr %fd) #14
  call void @llvm.memcpy.p0.p0.i64(ptr align 16 %fd, ptr align 16 @__const._ZN8QuantLib12_GLOBAL__N_12SiEd.fd, i64 80, i1 false)
  call void @llvm.lifetime.start.p0(i64 8, ptr %f) #14
  %12 = load double, ptr %y, align 8, !tbaa !14
  %arraydecay4 = getelementptr inbounds [10 x double], ptr %fn, i64 0, i64 0
  %arraydecay5 = getelementptr inbounds [10 x double], ptr %fd, i64 0, i64 0
  %call6 = call noundef double @_ZN8QuantLib12_GLOBAL__N_14padeEdPKdS2_m(double noundef %12, ptr noundef %arraydecay4, ptr noundef %arraydecay5, i64 noundef 10)
  %13 = load double, ptr %x.addr, align 8, !tbaa !14
  %div7 = fdiv double %call6, %13
  store double %div7, ptr %f, align 8, !tbaa !14
  call void @llvm.lifetime.start.p0(i64 80, ptr %gn) #14
  call void @llvm.memcpy.p0.p0.i64(ptr align 16 %gn, ptr align 16 @__const._ZN8QuantLib12_GLOBAL__N_12SiEd.gn, i64 80, i1 false)
  call void @llvm.lifetime.start.p0(i64 80, ptr %gd) #14
  call void @llvm.memcpy.p0.p0.i64(ptr align 16 %gd, ptr align 16 @__const._ZN8QuantLib12_GLOBAL__N_12SiEd.gd, i64 80, i1 false)
  call void @llvm.lifetime.start.p0(i64 8, ptr %g) #14
  %14 = load double, ptr %y, align 8, !tbaa !14
  %15 = load double, ptr %y, align 8, !tbaa !14
  %arraydecay8 = getelementptr inbounds [10 x double], ptr %gn, i64 0, i64 0
  %arraydecay9 = getelementptr inbounds [10 x double], ptr %gd, i64 0, i64 0
  %call10 = call noundef double @_ZN8QuantLib12_GLOBAL__N_14padeEdPKdS2_m(double noundef %15, ptr noundef %arraydecay8, ptr noundef %arraydecay9, i64 noundef 10)
  %mul11 = fmul double %14, %call10
  store double %mul11, ptr %g, align 8, !tbaa !14
  %16 = load double, ptr %f, align 8, !tbaa !14
  %17 = load double, ptr %x.addr, align 8, !tbaa !14
  %call12 = call double @cos(double noundef %17) #14, !tbaa !55
  %neg = fneg double %16
  %18 = call double @llvm.fmuladd.f64(double %neg, double %call12, double 0x3FF921FB54442D18)
  %19 = load double, ptr %g, align 8, !tbaa !14
  %20 = load double, ptr %x.addr, align 8, !tbaa !14
  %call14 = call double @sin(double noundef %20) #14, !tbaa !55
  %neg16 = fneg double %19
  %21 = call double @llvm.fmuladd.f64(double %neg16, double %call14, double %18)
  store double %21, ptr %retval, align 8
  call void @llvm.lifetime.end.p0(i64 8, ptr %g) #14
  call void @llvm.lifetime.end.p0(i64 80, ptr %gd) #14
  call void @llvm.lifetime.end.p0(i64 80, ptr %gn) #14
  call void @llvm.lifetime.end.p0(i64 8, ptr %f) #14
  call void @llvm.lifetime.end.p0(i64 80, ptr %fd) #14
  call void @llvm.lifetime.end.p0(i64 80, ptr %fn) #14
  call void @llvm.lifetime.end.p0(i64 8, ptr %y) #14
  br label %return

return:                                           ; preds = %if.else, %if.then
  %22 = load double, ptr %retval, align 8
  ret double %22
}