; Function Attrs: mustprogress nofree nounwind memory(write) uwtable
define internal fastcc noundef double @_ZN8QuantLib12_GLOBAL__N_12SiEd(double noundef %x) unnamed_addr #25 {
entry:
  %d = alloca [7 x double], align 16
  %cmp = fcmp ugt double %x, 4.000000e+00
  br i1 %cmp, label %if.else, label %if.then

if.then:                                          ; preds = %entry
  call void @llvm.lifetime.start.p0(i64 56, ptr nonnull %d) #34
  %0 = getelementptr inbounds i8, ptr %d, i64 48
  store i64 0, ptr %0, align 16
  store double 0x3F84B7CF5608D6CE, ptr %d, align 16
  %1 = getelementptr inbounds i8, ptr %d, i64 8
  store double 0x3F0A2BD0A39EBC96, ptr %1, align 8
  %2 = getelementptr inbounds i8, ptr %d, i64 16
  store double 0x3E84E443BD2B518E, ptr %2, align 16
  %3 = getelementptr inbounds i8, ptr %d, i64 24
  store double 0x3DF68B6CFDA26513, ptr %3, align 8
  %4 = getelementptr inbounds i8, ptr %d, i64 32
  store double 0x3D5FB352EF2F0F1F, ptr %4, align 16
  %5 = getelementptr inbounds i8, ptr %d, i64 40
  store double 0x3CB723612D0C63A0, ptr %5, align 8
  %mul = fmul double %x, %x
  br label %for.body.i

for.body.i:                                       ; preds = %for.body.i, %if.then
  %indvars.iv.i = phi i64 [ 6, %if.then ], [ %indvars.iv.next.i, %for.body.i ]
  %d.010.i = phi double [ 0.000000e+00, %if.then ], [ %mul4.i, %for.body.i ]
  %n.09.i = phi double [ 0.000000e+00, %if.then ], [ %mul.i, %for.body.i ]
  %arrayidx.i = getelementptr inbounds double, ptr @__const._ZN8QuantLib12_GLOBAL__N_12SiEd.n, i64 %indvars.iv.i
  %6 = load double, ptr %arrayidx.i, align 8, !tbaa !87
  %add.i = fadd double %n.09.i, %6
  %mul.i = fmul double %mul, %add.i
  %arrayidx2.i = getelementptr inbounds double, ptr %d, i64 %indvars.iv.i
  %7 = load double, ptr %arrayidx2.i, align 8, !tbaa !87
  %add3.i = fadd double %d.010.i, %7
  %mul4.i = fmul double %mul, %add3.i
  %indvars.iv.next.i = add nsw i64 %indvars.iv.i, -1
  %cmp.not.i = icmp eq i64 %indvars.iv.i, 0
  br i1 %cmp.not.i, label %_ZN8QuantLib12_GLOBAL__N_14padeEdPKdS2_m.exit, label %for.body.i, !llvm.loop !140

_ZN8QuantLib12_GLOBAL__N_14padeEdPKdS2_m.exit:    ; preds = %for.body.i
  %8 = fadd double %mul.i, 1.000000e+00
  %9 = fadd double %mul4.i, 1.000000e+00
  %10 = fdiv double %8, %9
  %mul2 = fmul double %x, %10
  call void @llvm.lifetime.end.p0(i64 56, ptr nonnull %d) #34
  br label %return

if.else:                                          ; preds = %entry
  %mul3 = fmul double %x, %x
  %div = fdiv double 1.000000e+00, %mul3
  br label %for.body.i11

for.body.i11:                                     ; preds = %for.body.i11, %if.else
  %indvars.iv.i12 = phi i64 [ 9, %if.else ], [ %indvars.iv.next.i21, %for.body.i11 ]
  %d.010.i13 = phi double [ 0.000000e+00, %if.else ], [ %mul4.i20, %for.body.i11 ]
  %n.09.i14 = phi double [ 0.000000e+00, %if.else ], [ %mul.i17, %for.body.i11 ]
  %arrayidx.i15 = getelementptr inbounds double, ptr @__const._ZN8QuantLib12_GLOBAL__N_12SiEd.fn, i64 %indvars.iv.i12
  %11 = load double, ptr %arrayidx.i15, align 8, !tbaa !87
  %add.i16 = fadd double %n.09.i14, %11
  %mul.i17 = fmul double %div, %add.i16
  %arrayidx2.i18 = getelementptr inbounds double, ptr @__const._ZN8QuantLib12_GLOBAL__N_12SiEd.fd, i64 %indvars.iv.i12
  %12 = load double, ptr %arrayidx2.i18, align 8, !tbaa !87
  %add3.i19 = fadd double %d.010.i13, %12
  %mul4.i20 = fmul double %div, %add3.i19
  %indvars.iv.next.i21 = add nsw i64 %indvars.iv.i12, -1
  %cmp.not.i22 = icmp eq i64 %indvars.iv.i12, 0
  br i1 %cmp.not.i22, label %_ZN8QuantLib12_GLOBAL__N_14padeEdPKdS2_m.exit23, label %for.body.i11, !llvm.loop !140

_ZN8QuantLib12_GLOBAL__N_14padeEdPKdS2_m.exit23:  ; preds = %for.body.i11
  %13 = fadd double %mul.i17, 1.000000e+00
  br label %for.body.i24

for.body.i24:                                     ; preds = %for.body.i24, %_ZN8QuantLib12_GLOBAL__N_14padeEdPKdS2_m.exit23
  %indvars.iv.i25 = phi i64 [ 9, %_ZN8QuantLib12_GLOBAL__N_14padeEdPKdS2_m.exit23 ], [ %indvars.iv.next.i34, %for.body.i24 ]
  %d.010.i26 = phi double [ 0.000000e+00, %_ZN8QuantLib12_GLOBAL__N_14padeEdPKdS2_m.exit23 ], [ %mul4.i33, %for.body.i24 ]
  %n.09.i27 = phi double [ 0.000000e+00, %_ZN8QuantLib12_GLOBAL__N_14padeEdPKdS2_m.exit23 ], [ %mul.i30, %for.body.i24 ]
  %arrayidx.i28 = getelementptr inbounds double, ptr @__const._ZN8QuantLib12_GLOBAL__N_12SiEd.gn, i64 %indvars.iv.i25
  %14 = load double, ptr %arrayidx.i28, align 8, !tbaa !87
  %add.i29 = fadd double %n.09.i27, %14
  %mul.i30 = fmul double %div, %add.i29
  %arrayidx2.i31 = getelementptr inbounds double, ptr @__const._ZN8QuantLib12_GLOBAL__N_12SiEd.gd, i64 %indvars.iv.i25
  %15 = load double, ptr %arrayidx2.i31, align 8, !tbaa !87
  %add3.i32 = fadd double %d.010.i26, %15
  %mul4.i33 = fmul double %div, %add3.i32
  %indvars.iv.next.i34 = add nsw i64 %indvars.iv.i25, -1
  %cmp.not.i35 = icmp eq i64 %indvars.iv.i25, 0
  br i1 %cmp.not.i35, label %_ZN8QuantLib12_GLOBAL__N_14padeEdPKdS2_m.exit36, label %for.body.i24, !llvm.loop !140

_ZN8QuantLib12_GLOBAL__N_14padeEdPKdS2_m.exit36:  ; preds = %for.body.i24
  %16 = fadd double %mul4.i20, 1.000000e+00
  %17 = fadd double %mul.i30, 1.000000e+00
  %18 = fadd double %mul4.i33, 1.000000e+00
  %call12 = tail call double @cos(double noundef %x) #34, !tbaa !88
  %19 = fneg double %13
  %20 = fdiv double %19, %16
  %neg = fdiv double %20, %x
  %21 = tail call double @llvm.fmuladd.f64(double %neg, double %call12, double 0x3FF921FB54442D18)
  %call14 = tail call double @sin(double noundef %x) #34, !tbaa !88
  %22 = fneg double %17
  %23 = fdiv double %22, %18
  %neg16 = fmul double %div, %23
  %24 = tail call double @llvm.fmuladd.f64(double %neg16, double %call14, double %21)
  br label %return

return:                                           ; preds = %_ZN8QuantLib12_GLOBAL__N_14padeEdPKdS2_m.exit36, %_ZN8QuantLib12_GLOBAL__N_14padeEdPKdS2_m.exit
  %retval.0 = phi double [ %mul2, %_ZN8QuantLib12_GLOBAL__N_14padeEdPKdS2_m.exit ], [ %24, %_ZN8QuantLib12_GLOBAL__N_14padeEdPKdS2_m.exit36 ]
  ret double %retval.0
}